; Function Attrs: mustprogress uwtable
define internal fastcc noundef i64 @_ZL10safe_stoulRKNSt7__cxx1112basic_stringIcSt11char_traitsIcESaIcEEE(ptr noundef nonnull readonly align 8 captures(none) dereferenceable(32) %0) unnamed_addr #0 personality ptr @__gxx_personality_v0 {
  %2 = alloca ptr, align 8
  %3 = tail call ptr @__errno_location() #32
  %4 = load i32, ptr %3, align 4, !tbaa !92
  store i32 0, ptr %3, align 4, !tbaa !92
  call void @llvm.lifetime.start.p0(i64 8, ptr nonnull %2) #27
  %5 = load ptr, ptr %0, align 8, !tbaa !25
  %6 = call i64 @strtoul(ptr noundef %5, ptr noundef nonnull %2, i32 noundef 10) #27
  %7 = load i32, ptr %3, align 4, !tbaa !92
  store i32 %4, ptr %3, align 4, !tbaa !92
  %8 = load ptr, ptr %2, align 8, !tbaa !93
  %9 = load ptr, ptr %0, align 8, !tbaa !25
  %10 = icmp eq ptr %8, %9
  br i1 %10, label %13, label %11

11:                                               ; preds = %1
  %12 = load i8, ptr %8, align 1, !tbaa !12
  %.not = icmp eq i8 %12, 0
  br i1 %.not, label %18, label %13

13:                                               ; preds = %11, %1
  %14 = tail call ptr @__cxa_allocate_exception(i64 16) #27
  invoke void @_ZNSt16invalid_argumentC1EPKc(ptr noundef nonnull align 8 dereferenceable(16) %14, ptr noundef nonnull @.str.151)
          to label %15 unwind label %16

15:                                               ; preds = %13
  tail call void @__cxa_throw(ptr nonnull %14, ptr nonnull @_ZTISt16invalid_argument, ptr nonnull @_ZNSt16invalid_argumentD1Ev) #30
  unreachable

16:                                               ; preds = %13
  %17 = landingpad { ptr, i32 }
          cleanup
  br label %25

18:                                               ; preds = %11
  %.not7 = icmp eq i32 %7, 0
  br i1 %.not7, label %24, label %19

19:                                               ; preds = %18
  %20 = tail call ptr @__cxa_allocate_exception(i64 16) #27
  invoke void @_ZNSt12out_of_rangeC1EPKc(ptr noundef nonnull align 8 dereferenceable(16) %20, ptr noundef nonnull @.str.151)
          to label %21 unwind label %22

21:                                               ; preds = %19
  tail call void @__cxa_throw(ptr nonnull %20, ptr nonnull @_ZTISt12out_of_range, ptr nonnull @_ZNSt12out_of_rangeD1Ev) #30
  unreachable

22:                                               ; preds = %19
  %23 = landingpad { ptr, i32 }
          cleanup
  br label %25

24:                                               ; preds = %18
  call void @llvm.lifetime.end.p0(i64 8, ptr nonnull %2) #27
  ret i64 %6

25:                                               ; preds = %22, %16
  %.sink = phi ptr [ %20, %22 ], [ %14, %16 ]
  %.pn = phi { ptr, i32 } [ %23, %22 ], [ %17, %16 ]
  tail call void @__cxa_free_exception(ptr nonnull %.sink) #27
  call void @llvm.lifetime.end.p0(i64 8, ptr nonnull %2) #27
  resume { ptr, i32 } %.pn
}